; ModuleID = 'source-C-CXX/26/1231.c'
source_filename = "source-C-CXX/26/1231.c"
target datalayout = "e-m:e-p270:32:32-p271:32:32-p272:64:64-i64:64-f80:128-n8:16:32:64-S128"
target triple = "x86_64-pc-linux-gnu"

@.str = private unnamed_addr constant [3 x i8] c"%d\00", align 1
@.str.1 = private unnamed_addr constant [10 x i8] c"%lf%lf%lf\00", align 1
@.str.2 = private unnamed_addr constant [33 x i8] c"x1=%.5lf+%.5lfi;x2=%.5lf-%.5lfi\0A\00", align 1
@.str.3 = private unnamed_addr constant [19 x i8] c"x1=%.5lf;x2=%.5lf\0A\00", align 1
@.str.4 = private unnamed_addr constant [13 x i8] c"x1=x2=%.5lf\0A\00", align 1

; Function Attrs: nofree nounwind sspstrong uwtable
define dso_local i32 @main(i32 %0, i8** nocapture readnone %1) local_unnamed_addr #0 {
  %3 = alloca i32, align 4
  %4 = alloca [100 x double], align 16
  %5 = alloca [100 x double], align 16
  %6 = alloca [100 x double], align 16
  %7 = bitcast i32* %3 to i8*
  call void @llvm.lifetime.start.p0i8(i64 4, i8* nonnull %7) #4
  %8 = call i32 (i8*, ...) @__isoc99_scanf(i8* getelementptr inbounds ([3 x i8], [3 x i8]* @.str, i64 0, i64 0), i32* nonnull %3)
  %9 = bitcast [100 x double]* %4 to i8*
  call void @llvm.lifetime.start.p0i8(i64 800, i8* nonnull %9) #4
  %10 = bitcast [100 x double]* %5 to i8*
  call void @llvm.lifetime.start.p0i8(i64 800, i8* nonnull %10) #4
  %11 = bitcast [100 x double]* %6 to i8*
  call void @llvm.lifetime.start.p0i8(i64 800, i8* nonnull %11) #4
  %12 = load i32, i32* %3, align 4, !tbaa !5
  %13 = icmp sgt i32 %12, 0
  br i1 %13, label %16, label %80

14:                                               ; preds = %16
  %15 = icmp sgt i32 %23, 0
  br i1 %15, label %26, label %80

16:                                               ; preds = %2, %16
  %17 = phi i64 [ %22, %16 ], [ 0, %2 ]
  %18 = getelementptr inbounds [100 x double], [100 x double]* %4, i64 0, i64 %17
  %19 = getelementptr inbounds [100 x double], [100 x double]* %5, i64 0, i64 %17
  %20 = getelementptr inbounds [100 x double], [100 x double]* %6, i64 0, i64 %17
  %21 = call i32 (i8*, ...) @__isoc99_scanf(i8* getelementptr inbounds ([10 x i8], [10 x i8]* @.str.1, i64 0, i64 0), double* nonnull %18, double* nonnull %19, double* nonnull %20)
  %22 = add nuw nsw i64 %17, 1
  %23 = load i32, i32* %3, align 4, !tbaa !5
  %24 = sext i32 %23 to i64
  %25 = icmp slt i64 %22, %24
  br i1 %25, label %16, label %14, !llvm.loop !9

26:                                               ; preds = %14, %75
  %27 = phi i64 [ %76, %75 ], [ 0, %14 ]
  %28 = getelementptr inbounds [100 x double], [100 x double]* %5, i64 0, i64 %27
  %29 = load double, double* %28, align 8, !tbaa !11
  %30 = fmul double %29, %29
  %31 = getelementptr inbounds [100 x double], [100 x double]* %4, i64 0, i64 %27
  %32 = load double, double* %31, align 8, !tbaa !11
  %33 = fmul double %32, 4.000000e+00
  %34 = getelementptr inbounds [100 x double], [100 x double]* %6, i64 0, i64 %27
  %35 = load double, double* %34, align 8, !tbaa !11
  %36 = fmul double %33, %35
  %37 = fsub double %30, %36
  %38 = fcmp olt double %37, 0.000000e+00
  br i1 %38, label %39, label %49

39:                                               ; preds = %26
  %40 = fneg double %29
  %41 = fmul double %32, 2.000000e+00
  %42 = fdiv double %40, %41
  %43 = fsub double %36, %30
  %44 = call double @sqrt(double %43) #4
  %45 = load double, double* %31, align 8, !tbaa !11
  %46 = fmul double %45, 2.000000e+00
  %47 = fdiv double %44, %46
  %48 = call i32 (i8*, ...) @printf(i8* nonnull dereferenceable(1) getelementptr inbounds ([33 x i8], [33 x i8]* @.str.2, i64 0, i64 0), double %42, double %47, double %42, double %47)
  br label %75

49:                                               ; preds = %26
  %50 = fcmp ogt double %37, 0.000000e+00
  br i1 %50, label %51, label %70

51:                                               ; preds = %49
  %52 = call double @sqrt(double %37) #4
  %53 = fsub double %52, %29
  %54 = load double, double* %31, align 8, !tbaa !11
  %55 = fmul double %54, 2.000000e+00
  %56 = fdiv double %53, %55
  %57 = load double, double* %28, align 8, !tbaa !11
  %58 = fneg double %57
  %59 = fmul double %57, %57
  %60 = fmul double %54, 4.000000e+00
  %61 = load double, double* %34, align 8, !tbaa !11
  %62 = fmul double %60, %61
  %63 = fsub double %59, %62
  %64 = call double @sqrt(double %63) #4
  %65 = fsub double %58, %64
  %66 = load double, double* %31, align 8, !tbaa !11
  %67 = fmul double %66, 2.000000e+00
  %68 = fdiv double %65, %67
  %69 = call i32 (i8*, ...) @printf(i8* nonnull dereferenceable(1) getelementptr inbounds ([19 x i8], [19 x i8]* @.str.3, i64 0, i64 0), double %56, double %68)
  br label %75

70:                                               ; preds = %49
  %71 = fneg double %29
  %72 = fmul double %32, 2.000000e+00
  %73 = fdiv double %71, %72
  %74 = call i32 (i8*, ...) @printf(i8* nonnull dereferenceable(1) getelementptr inbounds ([13 x i8], [13 x i8]* @.str.4, i64 0, i64 0), double %73)
  br label %75

75:                                               ; preds = %39, %70, %51
  %76 = add nuw nsw i64 %27, 1
  %77 = load i32, i32* %3, align 4, !tbaa !5
  %78 = sext i32 %77 to i64
  %79 = icmp slt i64 %76, %78
  br i1 %79, label %26, label %80, !llvm.loop !13

80:                                               ; preds = %75, %2, %14
  call void @llvm.lifetime.end.p0i8(i64 800, i8* nonnull %11) #4
  call void @llvm.lifetime.end.p0i8(i64 800, i8* nonnull %10) #4
  call void @llvm.lifetime.end.p0i8(i64 800, i8* nonnull %9) #4
  call void @llvm.lifetime.end.p0i8(i64 4, i8* nonnull %7) #4
  ret i32 0
}

; Function Attrs: argmemonly mustprogress nofree nosync nounwind willreturn
declare void @llvm.lifetime.start.p0i8(i64 immarg, i8* nocapture) #1

; Function Attrs: nofree nounwind
declare noundef i32 @__isoc99_scanf(i8* nocapture noundef readonly, ...) local_unnamed_addr #2

; Function Attrs: mustprogress nofree nounwind willreturn
declare double @sqrt(double) local_unnamed_addr #3

; Function Attrs: nofree nounwind
declare noundef i32 @printf(i8* nocapture noundef readonly, ...) local_unnamed_addr #2

; Function Attrs: argmemonly mustprogress nofree nosync nounwind willreturn
declare void @llvm.lifetime.end.p0i8(i64 immarg, i8* nocapture) #1


!llvm.module.flags = !{!0, !1, !2, !3}
!llvm.ident = !{!4}

!0 = !{i32 1, !"wchar_size", i32 4}
!1 = !{i32 7, !"PIC Level", i32 2}
!2 = !{i32 7, !"PIE Level", i32 2}
!3 = !{i32 7, !"uwtable", i32 1}
!4 = !{!"clang version 13.0.0"}
!5 = !{!6, !6, i64 0}
!6 = !{!"int", !7, i64 0}
!7 = !{!"omnipotent char", !8, i64 0}
!8 = !{!"Simple C/C++ TBAA"}
!9 = distinct !{!9, !10}
!10 = !{!"llvm.loop.mustprogress"}
!11 = !{!12, !12, i64 0}
!12 = !{!"double", !7, i64 0}
!13 = distinct !{!13, !10}
